; Function Attrs: null_pointer_is_valid sspstrong uwtable
define internal fastcc range(i32 23, 32) i32 @dissect_rdm_pd_disc_un_mute(ptr noundef %0, ptr noundef %1, i8 noundef zeroext %2, i8 noundef zeroext %3) unnamed_addr #1 {
  %cond = icmp eq i8 %2, 17
  br i1 %cond, label %5, label %12

5:                                                ; preds = %4
  %6 = load i32, ptr @hf_rdm_pd_disc_unmute_control_field, align 4
  %7 = tail call ptr @proto_tree_add_item(ptr noundef %1, i32 noundef %6, ptr noundef %0, i32 noundef 23, i32 noundef 2, i32 noundef 0)
  %8 = icmp ugt i8 %3, 2
  br i1 %8, label %9, label %12

9:                                                ; preds = %5
  %10 = load i32, ptr @hf_rdm_pd_disc_unmute_binding_uid, align 4
  %11 = tail call ptr @proto_tree_add_item(ptr noundef %1, i32 noundef %10, ptr noundef %0, i32 noundef 25, i32 noundef 6, i32 noundef 0)
  br label %12

12:                                               ; preds = %5, %9, %4
  %.0 = phi i32 [ 31, %9 ], [ 25, %5 ], [ 23, %4 ]
  ret i32 %.0
}